; Function Attrs: nounwind uwtable
define range(i32 -1, 1) i32 @H5S_select_none(ptr noundef %0) local_unnamed_addr #3 {
  %2 = load i8, ptr @H5S_init_g, align 1, !tbaa !3, !range !7, !noundef !8
  %3 = trunc nuw i8 %2 to i1
  %4 = load i8, ptr @H5_libterm_g, align 1, !range !7
  %5 = trunc nuw i8 %4 to i1
  %6 = select i1 %3, i1 true, i1 %5
  br i1 %6, label %14, label %7, !prof !9

7:                                                ; preds = %1
  store i8 1, ptr @H5S_init_g, align 1, !tbaa !3
  %8 = tail call i32 @H5S__init_package() #7
  %9 = icmp slt i32 %8, 0
  br i1 %9, label %10, label %._crit_edge

._crit_edge:                                      ; preds = %7
  %.pre = load i8, ptr @H5S_init_g, align 1, !tbaa !3, !range !7
  %.pre5 = load i8, ptr @H5_libterm_g, align 1, !range !7
  %.pre6 = trunc nuw i8 %.pre to i1
  %.pre7 = trunc nuw i8 %.pre5 to i1
  br label %14

10:                                               ; preds = %7
  store i8 0, ptr @H5S_init_g, align 1, !tbaa !3
  %11 = load i64, ptr @H5E_FUNC_g, align 8, !tbaa !28
  %12 = load i64, ptr @H5E_CANTINIT_g, align 8, !tbaa !28
  %13 = tail call i32 (ptr, ptr, i32, i64, i64, ptr, ...) @H5E_printf_stack(ptr noundef nonnull @.str, ptr noundef nonnull @__func__.H5S_select_none, i32 noundef 1016, i64 noundef %11, i64 noundef %12, ptr noundef nonnull @.str.1) #7
  br label %27

14:                                               ; preds = %._crit_edge, %1
  %.pre-phi8 = phi i1 [ %.pre7, %._crit_edge ], [ %5, %1 ]
  %.pre-phi = phi i1 [ %.pre6, %._crit_edge ], [ %3, %1 ]
  %15 = xor i1 %.pre-phi8, true
  %16 = select i1 %.pre-phi, i1 true, i1 %15
  br i1 %16, label %17, label %27, !prof !9

17:                                               ; preds = %14
  %18 = tail call i32 @H5S_select_release(ptr noundef %0) #7
  %19 = icmp slt i32 %18, 0
  br i1 %19, label %20, label %24

20:                                               ; preds = %17
  %21 = load i64, ptr @H5E_DATASPACE_g, align 8, !tbaa !28
  %22 = load i64, ptr @H5E_CANTDELETE_g, align 8, !tbaa !28
  %23 = tail call i32 (ptr, ptr, i32, i64, i64, ptr, ...) @H5E_printf_stack(ptr noundef nonnull @.str, ptr noundef nonnull @__func__.H5S_select_none, i32 noundef 1023, i64 noundef %21, i64 noundef %22, ptr noundef nonnull @.str.2) #7
  br label %27

24:                                               ; preds = %17
  %25 = getelementptr inbounds nuw i8, ptr %0, i64 80
  %26 = getelementptr inbounds nuw i8, ptr %0, i64 352
  store i64 0, ptr %26, align 8, !tbaa !10
  store ptr @H5S_sel_none, ptr %25, align 8, !tbaa !22
  br label %27

27:                                               ; preds = %10, %20, %24, %14
  %.0 = phi i32 [ -1, %10 ], [ -1, %20 ], [ 0, %24 ], [ 0, %14 ]
  ret i32 %.0
}